target datalayout = "e-m:e-p270:32:32-p271:32:32-p272:64:64-i64:64-i128:128-f80:128-n8:16:32:64-S128"
target triple = "x86_64-pc-linux-gnu"

%struct.XML_Memory_Handling_Suite = type { ptr, ptr, ptr }
%struct.XML_ParserStruct = type { ptr, ptr, ptr, %struct.XML_Memory_Handling_Suite, ptr, ptr, ptr, i64, ptr, i64, i8, i32, ptr, ptr, ptr, ptr, ptr, ptr, ptr, ptr, ptr, ptr, ptr, ptr, ptr, ptr, ptr, ptr, ptr, ptr, ptr, ptr, ptr, ptr, ptr, ptr, ptr, ptr, %struct.INIT_ENCODING, ptr, ptr, i8, i8, ptr, ptr, ptr, ptr, %struct.prolog_state, ptr, i32, ptr, ptr, ptr, ptr, ptr, i8, i32, ptr, ptr, ptr, ptr, ptr, ptr, ptr, ptr, ptr, i8, i8, ptr, ptr, ptr, ptr, ptr, ptr, i32, i32, i32, ptr, ptr, i64, i8, %struct.position, %struct.STRING_POOL, %struct.STRING_POOL, ptr, i32, i8, ptr, %struct.XML_ParsingStatus, i8, i8, i32, i64, %struct.accounting, %struct.entity_stats }
%struct.INIT_ENCODING = type { %struct.encoding, ptr }
%struct.encoding = type { [4 x ptr], [2 x ptr], ptr, ptr, ptr, ptr, ptr, ptr, ptr, ptr, ptr, ptr, i32, i8, i8 }
%struct.prolog_state = type { ptr, i32, i32, i32, i32, i32 }
%struct.position = type { i64, i64 }
%struct.STRING_POOL = type { ptr, ptr, ptr, ptr, ptr, ptr }
%struct.XML_ParsingStatus = type { i32, i8 }
%struct.accounting = type { i64, i64, i64, float, i64 }
%struct.entity_stats = type { i32, i32, i32, i64 }

; Function Attrs: nounwind uwtable
define internal ptr @copyString(ptr noundef %0, ptr noundef %1) #0 {
  %3 = alloca ptr, align 8
  %4 = alloca ptr, align 8
  %5 = alloca ptr, align 8
  %6 = alloca i64, align 8
  %7 = alloca ptr, align 8
  %8 = alloca i32, align 4
  store ptr %0, ptr %4, align 8, !tbaa !3
  store ptr %1, ptr %5, align 8, !tbaa !8
  call void @llvm.lifetime.start.p0(i64 8, ptr %6) #11
  store i64 0, ptr %6, align 8, !tbaa !172
  call void @llvm.lifetime.start.p0(i64 8, ptr %7) #11
  br label %9

9:                                                ; preds = %16, %2
  %10 = load ptr, ptr %4, align 8, !tbaa !3
  %11 = load i64, ptr %6, align 8, !tbaa !172
  %12 = getelementptr i8, ptr %10, i64 %11
  %13 = load i8, ptr %12, align 1, !tbaa !9
  %14 = sext i8 %13 to i32
  %15 = icmp ne i32 %14, 0
  br i1 %15, label %16, label %19

16:                                               ; preds = %9
  %17 = load i64, ptr %6, align 8, !tbaa !172
  %18 = add i64 %17, 1
  store i64 %18, ptr %6, align 8, !tbaa !172
  br label %9, !llvm.loop !173

19:                                               ; preds = %9
  %20 = load i64, ptr %6, align 8, !tbaa !172
  %21 = add i64 %20, 1
  store i64 %21, ptr %6, align 8, !tbaa !172
  %22 = load ptr, ptr %5, align 8, !tbaa !8
  %23 = getelementptr inbounds nuw %struct.XML_Memory_Handling_Suite, ptr %22, i32 0, i32 0
  %24 = load ptr, ptr %23, align 8, !tbaa !10
  %25 = load i64, ptr %6, align 8, !tbaa !172
  %26 = mul i64 %25, 1
  %27 = call ptr %24(i64 noundef %26)
  store ptr %27, ptr %7, align 8, !tbaa !3
  %28 = load ptr, ptr %7, align 8, !tbaa !3
  %29 = icmp eq ptr %28, null
  br i1 %29, label %30, label %31

30:                                               ; preds = %19
  store ptr null, ptr %3, align 8
  store i32 1, ptr %8, align 4
  br label %37

31:                                               ; preds = %19
  %32 = load ptr, ptr %7, align 8, !tbaa !3
  %33 = load ptr, ptr %4, align 8, !tbaa !3
  %34 = load i64, ptr %6, align 8, !tbaa !172
  %35 = mul i64 %34, 1
  call void @llvm.memcpy.p0.p0.i64(ptr align 1 %32, ptr align 1 %33, i64 %35, i1 false)
  %36 = load ptr, ptr %7, align 8, !tbaa !3
  store ptr %36, ptr %3, align 8
  store i32 1, ptr %8, align 4
  br label %37

37:                                               ; preds = %31, %30
  call void @llvm.lifetime.end.p0(i64 8, ptr %7) #11
  call void @llvm.lifetime.end.p0(i64 8, ptr %6) #11
  %38 = load ptr, ptr %3, align 8
  ret ptr %38
}

; Function Attrs: nounwind uwtable
define hidden i32 @PyExpat_XML_SetEncoding(ptr noundef %0, ptr noundef %1) #0 {
  %3 = alloca i32, align 4
  %4 = alloca ptr, align 8
  %5 = alloca ptr, align 8
  store ptr %0, ptr %4, align 8, !tbaa !12
  store ptr %1, ptr %5, align 8, !tbaa !3
  %6 = load ptr, ptr %4, align 8, !tbaa !12
  %7 = icmp eq ptr %6, null
  br i1 %7, label %8, label %9

8:                                                ; preds = %2
  store i32 0, ptr %3, align 4
  br label %49

9:                                                ; preds = %2
  %10 = load ptr, ptr %4, align 8, !tbaa !12
  %11 = getelementptr inbounds nuw %struct.XML_ParserStruct, ptr %10, i32 0, i32 88
  %12 = getelementptr inbounds nuw %struct.XML_ParsingStatus, ptr %11, i32 0, i32 0
  %13 = load i32, ptr %12, align 8, !tbaa !143
  %14 = icmp eq i32 %13, 1
  br i1 %14, label %21, label %15

15:                                               ; preds = %9
  %16 = load ptr, ptr %4, align 8, !tbaa !12
  %17 = getelementptr inbounds nuw %struct.XML_ParserStruct, ptr %16, i32 0, i32 88
  %18 = getelementptr inbounds nuw %struct.XML_ParsingStatus, ptr %17, i32 0, i32 0
  %19 = load i32, ptr %18, align 8, !tbaa !143
  %20 = icmp eq i32 %19, 3
  br i1 %20, label %21, label %22

21:                                               ; preds = %15, %9
  store i32 0, ptr %3, align 4
  br label %49

22:                                               ; preds = %15
  %23 = load ptr, ptr %4, align 8, !tbaa !12
  %24 = getelementptr inbounds nuw %struct.XML_ParserStruct, ptr %23, i32 0, i32 3
  %25 = getelementptr inbounds nuw %struct.XML_Memory_Handling_Suite, ptr %24, i32 0, i32 2
  %26 = load ptr, ptr %25, align 8, !tbaa !41
  %27 = load ptr, ptr %4, align 8, !tbaa !12
  %28 = getelementptr inbounds nuw %struct.XML_ParserStruct, ptr %27, i32 0, i32 40
  %29 = load ptr, ptr %28, align 8, !tbaa !58
  call void %26(ptr noundef %29)
  %30 = load ptr, ptr %5, align 8, !tbaa !3
  %31 = icmp eq ptr %30, null
  br i1 %31, label %32, label %35

32:                                               ; preds = %22
  %33 = load ptr, ptr %4, align 8, !tbaa !12
  %34 = getelementptr inbounds nuw %struct.XML_ParserStruct, ptr %33, i32 0, i32 40
  store ptr null, ptr %34, align 8, !tbaa !58
  br label %48

35:                                               ; preds = %22
  %36 = load ptr, ptr %5, align 8, !tbaa !3
  %37 = load ptr, ptr %4, align 8, !tbaa !12
  %38 = getelementptr inbounds nuw %struct.XML_ParserStruct, ptr %37, i32 0, i32 3
  %39 = call ptr @copyString(ptr noundef %36, ptr noundef %38)
  %40 = load ptr, ptr %4, align 8, !tbaa !12
  %41 = getelementptr inbounds nuw %struct.XML_ParserStruct, ptr %40, i32 0, i32 40
  store ptr %39, ptr %41, align 8, !tbaa !58
  %42 = load ptr, ptr %4, align 8, !tbaa !12
  %43 = getelementptr inbounds nuw %struct.XML_ParserStruct, ptr %42, i32 0, i32 40
  %44 = load ptr, ptr %43, align 8, !tbaa !58
  %45 = icmp ne ptr %44, null
  br i1 %45, label %47, label %46

46:                                               ; preds = %35
  store i32 0, ptr %3, align 4
  br label %49

47:                                               ; preds = %35
  br label %48

48:                                               ; preds = %47, %32
  store i32 1, ptr %3, align 4
  br label %49

49:                                               ; preds = %48, %46, %21, %8
  %50 = load i32, ptr %3, align 4
  ret i32 %50
}